#include <math.h>
#include <stdio.h>
#include <stdlib.h>
#include <string.h>

void jiao(int n)
{
	int m,k;
	if(n==1)
	{
		printf("End\n");
	}
	if(n!=1)
	{
		if(n%2!=0) 
		{
		    m=n*3+1;
		    printf("%d*3+1=%d\n",n,m);
		    jiao(m);
		}
    	if(n%2==0)
		{
		    k=n/2;
		    printf("%d/2=%d\n",n,k);
		    jiao(k);
		}
	}
}
void main()
{
	int n;
	scanf("%d",&n);
	jiao(n);
}

